target datalayout = "e-m:e-p270:32:32-p271:32:32-p272:64:64-i64:64-i128:128-f80:128-n8:16:32:64-S128"
target triple = "x86_64-pc-linux-gnu"

%struct.URLContext = type { ptr, ptr, ptr, ptr, i32, i32, i32, i32, %struct.AVIOInterruptCB, i64, ptr, ptr, i32 }
%struct.AVIOInterruptCB = type { ptr, ptr }
%struct.URLProtocol = type { ptr, ptr, ptr, ptr, ptr, ptr, ptr, ptr, ptr, ptr, ptr, ptr, ptr, ptr, ptr, ptr, i32, i32, ptr, ptr, ptr, ptr, ptr, ptr, ptr }
%struct.AVIODirContext = type { ptr }
%struct.AVIODirEntry = type { ptr, i32, i32, i64, i64, i64, i64, i64, i64, i64 }

; Function Attrs: nounwind uwtable
define void @avio_free_directory_entry(ptr noundef %0) #1 {
  %2 = alloca ptr, align 8
  store ptr %0, ptr %2, align 8, !tbaa !111
  %3 = load ptr, ptr %2, align 8, !tbaa !111
  %4 = icmp ne ptr %3, null
  br i1 %4, label %5, label %9

5:                                                ; preds = %1
  %6 = load ptr, ptr %2, align 8, !tbaa !111
  %7 = load ptr, ptr %6, align 8, !tbaa !113
  %8 = icmp ne ptr %7, null
  br i1 %8, label %10, label %9

9:                                                ; preds = %5, %1
  br label %16

10:                                               ; preds = %5
  %11 = load ptr, ptr %2, align 8, !tbaa !111
  %12 = load ptr, ptr %11, align 8, !tbaa !113
  %13 = getelementptr inbounds nuw %struct.AVIODirEntry, ptr %12, i32 0, i32 0
  %14 = load ptr, ptr %13, align 8, !tbaa !115
  call void @av_free(ptr noundef %14)
  %15 = load ptr, ptr %2, align 8, !tbaa !111
  call void @av_freep(ptr noundef %15)
  br label %16

16:                                               ; preds = %10, %9
  ret void
}

; Function Attrs: nounwind uwtable
define i32 @avio_read_dir(ptr noundef %0, ptr noundef %1) #1 {
  %3 = alloca i32, align 4
  %4 = alloca ptr, align 8
  %5 = alloca ptr, align 8
  %6 = alloca ptr, align 8
  %7 = alloca i32, align 4
  %8 = alloca i32, align 4
  store ptr %0, ptr %4, align 8, !tbaa !104
  store ptr %1, ptr %5, align 8, !tbaa !111
  call void @llvm.lifetime.start.p0(i64 8, ptr %6) #10
  call void @llvm.lifetime.start.p0(i64 4, ptr %7) #10
  %9 = load ptr, ptr %4, align 8, !tbaa !104
  %10 = icmp ne ptr %9, null
  br i1 %10, label %11, label %16

11:                                               ; preds = %2
  %12 = load ptr, ptr %4, align 8, !tbaa !104
  %13 = getelementptr inbounds nuw %struct.AVIODirContext, ptr %12, i32 0, i32 0
  %14 = load ptr, ptr %13, align 8, !tbaa !109
  %15 = icmp ne ptr %14, null
  br i1 %15, label %17, label %16

16:                                               ; preds = %11, %2
  store i32 -22, ptr %3, align 4
  store i32 1, ptr %8, align 4
  br label %34

17:                                               ; preds = %11
  %18 = load ptr, ptr %4, align 8, !tbaa !104
  %19 = getelementptr inbounds nuw %struct.AVIODirContext, ptr %18, i32 0, i32 0
  %20 = load ptr, ptr %19, align 8, !tbaa !109
  store ptr %20, ptr %6, align 8, !tbaa !22
  %21 = load ptr, ptr %6, align 8, !tbaa !22
  %22 = getelementptr inbounds nuw %struct.URLContext, ptr %21, i32 0, i32 1
  %23 = load ptr, ptr %22, align 8, !tbaa !38
  %24 = getelementptr inbounds nuw %struct.URLProtocol, ptr %23, i32 0, i32 20
  %25 = load ptr, ptr %24, align 8, !tbaa !107
  %26 = load ptr, ptr %6, align 8, !tbaa !22
  %27 = load ptr, ptr %5, align 8, !tbaa !111
  %28 = call i32 %25(ptr noundef %26, ptr noundef %27)
  store i32 %28, ptr %7, align 4, !tbaa !21
  %29 = icmp slt i32 %28, 0
  br i1 %29, label %30, label %32

30:                                               ; preds = %17
  %31 = load ptr, ptr %5, align 8, !tbaa !111
  call void @avio_free_directory_entry(ptr noundef %31)
  br label %32

32:                                               ; preds = %30, %17
  %33 = load i32, ptr %7, align 4, !tbaa !21
  store i32 %33, ptr %3, align 4
  store i32 1, ptr %8, align 4
  br label %34

34:                                               ; preds = %32, %16
  call void @llvm.lifetime.end.p0(i64 4, ptr %7) #10
  call void @llvm.lifetime.end.p0(i64 8, ptr %6) #10
  %35 = load i32, ptr %3, align 4
  ret i32 %35
}