; Function Attrs: nounwind uwtable
define i32 @avio_read_dir(ptr noundef readonly captures(address_is_null) %0, ptr noundef %1) local_unnamed_addr #3 {
  %.not = icmp eq ptr %0, null
  br i1 %.not, label %avio_free_directory_entry.exit, label %3

3:                                                ; preds = %2
  %4 = load ptr, ptr %0, align 8, !tbaa !92
  %.not10 = icmp eq ptr %4, null
  br i1 %.not10, label %avio_free_directory_entry.exit, label %5

5:                                                ; preds = %3
  %6 = getelementptr inbounds nuw i8, ptr %4, i64 8
  %7 = load ptr, ptr %6, align 8, !tbaa !21
  %8 = getelementptr inbounds nuw i8, ptr %7, i64 152
  %9 = load ptr, ptr %8, align 8, !tbaa !90
  %10 = tail call i32 %9(ptr noundef nonnull %4, ptr noundef %1) #12
  %11 = icmp sgt i32 %10, -1
  %.not.i = icmp eq ptr %1, null
  %or.cond = or i1 %.not.i, %11
  br i1 %or.cond, label %avio_free_directory_entry.exit, label %12

12:                                               ; preds = %5
  %13 = load ptr, ptr %1, align 8, !tbaa !96
  %.not5.i = icmp eq ptr %13, null
  br i1 %.not5.i, label %avio_free_directory_entry.exit, label %14

14:                                               ; preds = %12
  %15 = load ptr, ptr %13, align 8, !tbaa !98
  tail call void @av_free(ptr noundef %15) #12
  tail call void @av_freep(ptr noundef nonnull %1) #12
  br label %avio_free_directory_entry.exit

avio_free_directory_entry.exit:                   ; preds = %14, %12, %5, %2, %3
  %.0 = phi i32 [ -22, %3 ], [ -22, %2 ], [ %10, %5 ], [ %10, %12 ], [ %10, %14 ]
  ret i32 %.0
}